target datalayout = "e-m:e-p270:32:32-p271:32:32-p272:64:64-i64:64-i128:128-f80:128-n8:16:32:64-S128"
target triple = "x86_64-pc-linux-gnu"

%struct.DICTIONARY_ID = type { i64 }
%"class.std::__shared_count" = type { ptr }
%"class.toku::locktree" = type { ptr, %struct.DICTIONARY_ID, i32, [4 x i8], %"class.toku::comparator", ptr, ptr, ptr, ptr, %"struct.toku::lt_lock_request_info", i64, %"class.toku::range_buffer", i32, i64, i64 }
%"class.toku::comparator" = type <{ ptr, ptr, i8, [7 x i8] }>
%"struct.toku::lt_lock_request_info" = type <{ %"class.toku::omt", %"struct.std::atomic", [7 x i8], %"class.std::shared_ptr.0", i8, [7 x i8], %"struct.toku::lt_counters", %"struct.std::atomic.3", i64, %struct.toku_mutex_t, %struct.toku_cond_t, i8, [7 x i8] }>
%"class.toku::omt" = type { i8, i32, %union.anon }
%union.anon = type { %"struct.toku::omt<toku::lock_request *>::omt_array" }
%"struct.toku::omt<toku::lock_request *>::omt_array" = type { i32, i32, ptr }
%"struct.std::atomic" = type { %"struct.std::__atomic_base" }
%"struct.std::__atomic_base" = type { i8 }
%"class.std::shared_ptr.0" = type { %"class.std::__shared_ptr.1" }
%"class.std::__shared_ptr.1" = type { ptr, %"class.std::__shared_count" }
%"struct.toku::lt_counters" = type { i64, i64, i64, i64, i64 }
%"struct.std::atomic.3" = type { %"struct.std::__atomic_base.4" }
%"struct.std::__atomic_base.4" = type { i64 }
%struct.toku_mutex_t = type { %union.pthread_mutex_t, ptr }
%union.pthread_mutex_t = type { %struct.__pthread_mutex_s }
%struct.__pthread_mutex_s = type { i32, i32, i32, i32, i32, i16, i16, %struct.__pthread_internal_list }
%struct.__pthread_internal_list = type { ptr, ptr }
%struct.toku_cond_t = type { %union.pthread_cond_t, ptr }
%union.pthread_cond_t = type { %struct.__pthread_cond_s }
%struct.__pthread_cond_s = type { %union.__atomic_wide_counter, %union.__atomic_wide_counter, [2 x i32], [2 x i32], i32, i32, [2 x i32] }
%union.__atomic_wide_counter = type { i64 }
%"class.toku::range_buffer" = type <{ %class.memarena, i32, [4 x i8] }>
%class.memarena = type { %"struct.memarena::arena_chunk", ptr, i32, i64, i64 }
%"struct.memarena::arena_chunk" = type { ptr, i64, i64 }
%"class.toku::keyrange" = type <{ %struct.__toku_dbt, %struct.__toku_dbt, ptr, ptr, i8, [7 x i8] }>
%struct.__toku_dbt = type { ptr, i64, i64, i32 }
%"class.toku::concurrent_tree::locked_keyrange" = type { ptr, %"class.toku::keyrange", ptr }
%"class.toku::range_buffer::iterator" = type { %"class.memarena::chunk_iterator", ptr, i64, i64, i64 }
%"class.memarena::chunk_iterator" = type <{ ptr, i32, [4 x i8] }>
%"class.toku::range_buffer::iterator::record" = type { %"struct.toku::range_buffer::record_header", %struct.__toku_dbt, %struct.__toku_dbt }
%"struct.toku::range_buffer::record_header" = type { i8, i8, i8, i8, i16, i16, i8 }

; Function Attrs: mustprogress nounwind uwtable
define linkonce_odr void @_Z15toku_unsafe_setIiEvPT_S0_(ptr noundef %0, i32 noundef %1) #5 comdat {
  %3 = alloca ptr, align 8
  %4 = alloca i32, align 4
  store ptr %0, ptr %3, align 8, !tbaa !87
  store i32 %1, ptr %4, align 4, !tbaa !81
  %5 = load i32, ptr %4, align 4, !tbaa !81
  %6 = load ptr, ptr %3, align 8, !tbaa !87
  store i32 %5, ptr %6, align 4, !tbaa !81
  ret void
}

; Function Attrs: mustprogress uwtable
define linkonce_odr void @_Z15toku_unsafe_setIiEvRT_S0_(ptr noundef nonnull align 4 dereferenceable(4) %0, i32 noundef %1) #0 comdat {
  %3 = alloca ptr, align 8
  %4 = alloca i32, align 4
  store ptr %0, ptr %3, align 8, !tbaa !87
  store i32 %1, ptr %4, align 4, !tbaa !81
  %5 = load ptr, ptr %3, align 8, !tbaa !87
  %6 = load i32, ptr %4, align 4, !tbaa !81
  call void @_Z15toku_unsafe_setIiEvPT_S0_(ptr noundef %5, i32 noundef %6)
  ret void
}

; Function Attrs: mustprogress uwtable
define void @_ZN4toku8locktree7sto_endEv(ptr noundef nonnull align 8 dereferenceable(400) %0) #0 align 2 {
  %2 = alloca ptr, align 8
  %3 = alloca i64, align 8
  store ptr %0, ptr %2, align 8, !tbaa !4
  %4 = load ptr, ptr %2, align 8
  call void @llvm.lifetime.start.p0(i64 8, ptr %3) #18
  %5 = getelementptr inbounds nuw %"class.toku::locktree", ptr %4, i32 0, i32 11
  %6 = call noundef i64 @_ZNK4toku12range_buffer17total_memory_sizeEv(ptr noundef nonnull align 8 dereferenceable(60) %5)
  store i64 %6, ptr %3, align 8, !tbaa !46
  %7 = getelementptr inbounds nuw %"class.toku::locktree", ptr %4, i32 0, i32 0
  %8 = load ptr, ptr %7, align 8, !tbaa !15
  %9 = icmp ne ptr %8, null
  br i1 %9, label %10, label %14

10:                                               ; preds = %1
  %11 = getelementptr inbounds nuw %"class.toku::locktree", ptr %4, i32 0, i32 0
  %12 = load ptr, ptr %11, align 8, !tbaa !15
  %13 = load i64, ptr %3, align 8, !tbaa !46
  call void @_ZN4toku16locktree_manager17note_mem_releasedEm(ptr noundef nonnull align 8 dereferenceable(392) %12, i64 noundef %13)
  br label %14

14:                                               ; preds = %10, %1
  %15 = getelementptr inbounds nuw %"class.toku::locktree", ptr %4, i32 0, i32 11
  call void @_ZN4toku12range_buffer7destroyEv(ptr noundef nonnull align 8 dereferenceable(60) %15)
  %16 = getelementptr inbounds nuw %"class.toku::locktree", ptr %4, i32 0, i32 11
  call void @_ZN4toku12range_buffer6createEv(ptr noundef nonnull align 8 dereferenceable(60) %16)
  %17 = getelementptr inbounds nuw %"class.toku::locktree", ptr %4, i32 0, i32 10
  store i64 0, ptr %17, align 8, !tbaa !50
  call void @llvm.lifetime.end.p0(i64 8, ptr %3) #18
  ret void
}

; Function Attrs: mustprogress nounwind uwtable
define linkonce_odr noundef i32 @_Z17toku_unsafe_fetchIiET_PS0_(ptr noundef %0) #5 comdat {
  %2 = alloca ptr, align 8
  %3 = alloca i32, align 4
  store ptr %0, ptr %2, align 8, !tbaa !87
  call void @llvm.lifetime.start.p0(i64 4, ptr %3) #18
  %4 = load ptr, ptr %2, align 8, !tbaa !87
  %5 = load i32, ptr %4, align 4, !tbaa !81
  store i32 %5, ptr %3, align 4, !tbaa !81
  %6 = load i32, ptr %3, align 4, !tbaa !81
  call void @llvm.lifetime.end.p0(i64 4, ptr %3) #18
  ret i32 %6
}

; Function Attrs: mustprogress uwtable
define void @_ZN4toku8locktree27sto_end_early_no_accountingEPv(ptr noundef nonnull align 8 dereferenceable(400) %0, ptr noundef %1) #0 align 2 {
  %3 = alloca ptr, align 8
  %4 = alloca ptr, align 8
  store ptr %0, ptr %3, align 8, !tbaa !4
  store ptr %1, ptr %4, align 8, !tbaa !55
  %5 = load ptr, ptr %3, align 8
  %6 = load ptr, ptr %4, align 8, !tbaa !55
  call void @_ZN4toku8locktree33sto_migrate_buffer_ranges_to_treeEPv(ptr noundef nonnull align 8 dereferenceable(400) %5, ptr noundef %6)
  call void @_ZN4toku8locktree7sto_endEv(ptr noundef nonnull align 8 dereferenceable(400) %5)
  %7 = getelementptr inbounds nuw %"class.toku::locktree", ptr %5, i32 0, i32 12
  call void @_Z15toku_unsafe_setIiEvRT_S0_(ptr noundef nonnull align 4 dereferenceable(4) %7, i32 noundef 0)
  ret void
}

; Function Attrs: inlinehint mustprogress nounwind uwtable
define internal noundef i64 @_ZL13toku_time_nowv() #4 {
  %1 = alloca i32, align 4
  %2 = alloca i32, align 4
  call void @llvm.lifetime.start.p0(i64 4, ptr %1) #18
  call void @llvm.lifetime.start.p0(i64 4, ptr %2) #18
  %3 = call { i32, i32 } asm sideeffect "rdtsc", "={ax},={dx},~{dirflag},~{fpsr},~{flags}"() #18, !srcloc !96
  %4 = extractvalue { i32, i32 } %3, 0
  %5 = extractvalue { i32, i32 } %3, 1
  store i32 %4, ptr %1, align 4, !tbaa !81
  store i32 %5, ptr %2, align 4, !tbaa !81
  %6 = load i32, ptr %2, align 4, !tbaa !81
  %7 = zext i32 %6 to i64
  %8 = shl i64 %7, 32
  %9 = load i32, ptr %1, align 4, !tbaa !81
  %10 = zext i32 %9 to i64
  %11 = or i64 %8, %10
  call void @llvm.lifetime.end.p0(i64 4, ptr %2) #18
  call void @llvm.lifetime.end.p0(i64 4, ptr %1) #18
  ret i64 %11
}

; Function Attrs: mustprogress nounwind uwtable
define linkonce_odr noundef i64 @_Z17toku_unsafe_fetchImET_PS0_(ptr noundef %0) #5 comdat {
  %2 = alloca ptr, align 8
  %3 = alloca i64, align 8
  store ptr %0, ptr %2, align 8, !tbaa !136
  call void @llvm.lifetime.start.p0(i64 8, ptr %3) #18
  %4 = load ptr, ptr %2, align 8, !tbaa !136
  %5 = load i64, ptr %4, align 8, !tbaa !46
  store i64 %5, ptr %3, align 8, !tbaa !46
  %6 = load i64, ptr %3, align 8, !tbaa !46
  call void @llvm.lifetime.end.p0(i64 8, ptr %3) #18
  ret i64 %6
}

; Function Attrs: alwaysinline mustprogress nounwind uwtable
define internal noundef i32 @_ZL23toku_sync_fetch_and_addIiiET_PS0_T0_(ptr noundef %0, i32 noundef %1) #8 {
  %3 = alloca ptr, align 8
  %4 = alloca i32, align 4
  store ptr %0, ptr %3, align 8, !tbaa !87
  store i32 %1, ptr %4, align 4, !tbaa !81
  %5 = load ptr, ptr %3, align 8, !tbaa !87
  %6 = load i32, ptr %4, align 4, !tbaa !81
  %7 = atomicrmw add ptr %5, i32 %6 seq_cst, align 4
  ret i32 %7
}

; Function Attrs: mustprogress uwtable
define linkonce_odr noundef i32 @_Z17toku_unsafe_fetchIiET_RS0_(ptr noundef nonnull align 4 dereferenceable(4) %0) #0 comdat {
  %2 = alloca ptr, align 8
  store ptr %0, ptr %2, align 8, !tbaa !87
  %3 = load ptr, ptr %2, align 8, !tbaa !87
  %4 = call noundef i32 @_Z17toku_unsafe_fetchIiET_PS0_(ptr noundef %3)
  ret i32 %4
}

; Function Attrs: mustprogress uwtable
define void @_ZN4toku8locktree13sto_end_earlyEPv(ptr noundef nonnull align 8 dereferenceable(400) %0, ptr noundef %1) #0 align 2 {
  %3 = alloca ptr, align 8
  %4 = alloca ptr, align 8
  %5 = alloca i64, align 8
  %6 = alloca i64, align 8
  store ptr %0, ptr %3, align 8, !tbaa !4
  store ptr %1, ptr %4, align 8, !tbaa !55
  %7 = load ptr, ptr %3, align 8
  %8 = getelementptr inbounds nuw %"class.toku::locktree", ptr %7, i32 0, i32 13
  %9 = load i64, ptr %8, align 8, !tbaa !52
  %10 = add i64 %9, 1
  store i64 %10, ptr %8, align 8, !tbaa !52
  call void @llvm.lifetime.start.p0(i64 8, ptr %5) #18
  %11 = call noundef i64 @_ZL13toku_time_nowv()
  store i64 %11, ptr %5, align 8, !tbaa !46
  %12 = load ptr, ptr %4, align 8, !tbaa !55
  call void @_ZN4toku8locktree27sto_end_early_no_accountingEPv(ptr noundef nonnull align 8 dereferenceable(400) %7, ptr noundef %12)
  call void @llvm.lifetime.start.p0(i64 8, ptr %6) #18
  %13 = call noundef i64 @_ZL13toku_time_nowv()
  store i64 %13, ptr %6, align 8, !tbaa !46
  %14 = load i64, ptr %6, align 8, !tbaa !46
  %15 = load i64, ptr %5, align 8, !tbaa !46
  %16 = sub i64 %14, %15
  %17 = getelementptr inbounds nuw %"class.toku::locktree", ptr %7, i32 0, i32 14
  %18 = load i64, ptr %17, align 8, !tbaa !53
  %19 = add i64 %18, %16
  store i64 %19, ptr %17, align 8, !tbaa !53
  call void @llvm.lifetime.end.p0(i64 8, ptr %6) #18
  call void @llvm.lifetime.end.p0(i64 8, ptr %5) #18
  ret void
}

; Function Attrs: mustprogress uwtable
define linkonce_odr noundef i64 @_Z17toku_unsafe_fetchImET_RS0_(ptr noundef nonnull align 8 dereferenceable(8) %0) #0 comdat {
  %2 = alloca ptr, align 8
  store ptr %0, ptr %2, align 8, !tbaa !136
  %3 = load ptr, ptr %2, align 8, !tbaa !136
  %4 = call noundef i64 @_Z17toku_unsafe_fetchImET_PS0_(ptr noundef %3)
  ret i64 %4
}

; Function Attrs: mustprogress uwtable
define void @_ZN4toku8locktree13release_locksEmPKNS_12range_bufferEb(ptr noundef nonnull align 8 dereferenceable(400) %0, i64 noundef %1, ptr noundef %2, i1 noundef zeroext %3) #0 align 2 {
  %5 = alloca ptr, align 8
  %6 = alloca i64, align 8
  %7 = alloca ptr, align 8
  %8 = alloca i8, align 1
  %9 = alloca i8, align 1
  %10 = alloca %"class.toku::concurrent_tree::locked_keyrange", align 8
  %11 = alloca %"class.toku::range_buffer::iterator", align 8
  %12 = alloca %"class.toku::range_buffer::iterator::record", align 8
  %13 = alloca ptr, align 8
  %14 = alloca ptr, align 8
  store ptr %0, ptr %5, align 8, !tbaa !4
  store i64 %1, ptr %6, align 8, !tbaa !46
  store ptr %2, ptr %7, align 8, !tbaa !144
  %15 = zext i1 %3 to i8
  store i8 %15, ptr %8, align 1, !tbaa !67
  %16 = load ptr, ptr %5, align 8
  call void @llvm.lifetime.start.p0(i64 1, ptr %9) #18
  %17 = load i8, ptr %8, align 1, !tbaa !67, !range !68, !noundef !69
  %18 = trunc i8 %17 to i1
  br i1 %18, label %19, label %23

19:                                               ; preds = %4
  %20 = load i64, ptr %6, align 8, !tbaa !46
  %21 = call noundef zeroext i1 @_ZN4toku8locktree15sto_try_releaseEm(ptr noundef nonnull align 8 dereferenceable(400) %16, i64 noundef %20)
  %22 = zext i1 %21 to i8
  store i8 %22, ptr %9, align 1, !tbaa !67
  br label %36

23:                                               ; preds = %4
  %24 = getelementptr inbounds nuw %"class.toku::locktree", ptr %16, i32 0, i32 10
  %25 = call noundef i64 @_Z17toku_unsafe_fetchImET_RS0_(ptr noundef nonnull align 8 dereferenceable(8) %24)
  %26 = icmp ne i64 %25, 0
  br i1 %26, label %27, label %35

27:                                               ; preds = %23
  call void @llvm.lifetime.start.p0(i64 104, ptr %10) #18
  %28 = getelementptr inbounds nuw %"class.toku::locktree", ptr %16, i32 0, i32 7
  %29 = load ptr, ptr %28, align 8, !tbaa !49
  call void @_ZN4toku15concurrent_tree15locked_keyrange7prepareEPS0_(ptr noundef nonnull align 8 dereferenceable(104) %10, ptr noundef %29)
  %30 = getelementptr inbounds nuw %"class.toku::locktree", ptr %16, i32 0, i32 10
  %31 = load i64, ptr %30, align 8, !tbaa !50
  %32 = icmp ne i64 %31, 0
  br i1 %32, label %33, label %34

33:                                               ; preds = %27
  call void @_ZN4toku8locktree13sto_end_earlyEPv(ptr noundef nonnull align 8 dereferenceable(400) %16, ptr noundef %10)
  br label %34

34:                                               ; preds = %33, %27
  call void @_ZN4toku15concurrent_tree15locked_keyrange7releaseEv(ptr noundef nonnull align 8 dereferenceable(104) %10)
  call void @llvm.lifetime.end.p0(i64 104, ptr %10) #18
  br label %35

35:                                               ; preds = %34, %23
  store i8 0, ptr %9, align 1, !tbaa !67
  br label %36

36:                                               ; preds = %35, %19
  %37 = load i8, ptr %9, align 1, !tbaa !67, !range !68, !noundef !69
  %38 = trunc i8 %37 to i1
  br i1 %38, label %57, label %39

39:                                               ; preds = %36
  call void @llvm.lifetime.start.p0(i64 48, ptr %11) #18
  %40 = load ptr, ptr %7, align 8, !tbaa !144
  call void @_ZN4toku12range_buffer8iteratorC1EPKS0_(ptr noundef nonnull align 8 dereferenceable(48) %11, ptr noundef %40)
  call void @llvm.lifetime.start.p0(i64 80, ptr %12) #18
  br label %41

41:                                               ; preds = %43, %39
  %42 = call noundef zeroext i1 @_ZN4toku12range_buffer8iterator7currentEPNS1_6recordE(ptr noundef nonnull align 8 dereferenceable(48) %11, ptr noundef %12)
  br i1 %42, label %43, label %49

43:                                               ; preds = %41
  call void @llvm.lifetime.start.p0(i64 8, ptr %13) #18
  %44 = call noundef ptr @_ZNK4toku12range_buffer8iterator6record12get_left_keyEv(ptr noundef nonnull align 8 dereferenceable(80) %12)
  store ptr %44, ptr %13, align 8, !tbaa !89
  call void @llvm.lifetime.start.p0(i64 8, ptr %14) #18
  %45 = call noundef ptr @_ZNK4toku12range_buffer8iterator6record13get_right_keyEv(ptr noundef nonnull align 8 dereferenceable(80) %12)
  store ptr %45, ptr %14, align 8, !tbaa !89
  %46 = load i64, ptr %6, align 8, !tbaa !46
  %47 = load ptr, ptr %13, align 8, !tbaa !89
  %48 = load ptr, ptr %14, align 8, !tbaa !89
  call void @_ZN4toku8locktree34remove_overlapping_locks_for_txnidEmPK10__toku_dbtS3_(ptr noundef nonnull align 8 dereferenceable(400) %16, i64 noundef %46, ptr noundef %47, ptr noundef %48)
  call void @_ZN4toku12range_buffer8iterator4nextEv(ptr noundef nonnull align 8 dereferenceable(48) %11)
  call void @llvm.lifetime.end.p0(i64 8, ptr %14) #18
  call void @llvm.lifetime.end.p0(i64 8, ptr %13) #18
  br label %41, !llvm.loop !146

49:                                               ; preds = %41
  %50 = getelementptr inbounds nuw %"class.toku::locktree", ptr %16, i32 0, i32 12
  %51 = call noundef i32 @_Z17toku_unsafe_fetchIiET_RS0_(ptr noundef nonnull align 4 dereferenceable(4) %50)
  %52 = icmp slt i32 %51, 100
  br i1 %52, label %53, label %56

53:                                               ; preds = %49
  %54 = getelementptr inbounds nuw %"class.toku::locktree", ptr %16, i32 0, i32 12
  %55 = call noundef i32 @_ZL23toku_sync_fetch_and_addIiiET_PS0_T0_(ptr noundef %54, i32 noundef 1)
  br label %56

56:                                               ; preds = %53, %49
  call void @llvm.lifetime.end.p0(i64 80, ptr %12) #18
  call void @llvm.lifetime.end.p0(i64 48, ptr %11) #18
  br label %57

57:                                               ; preds = %56, %36
  call void @llvm.lifetime.end.p0(i64 1, ptr %9) #18
  ret void
}