; Function Attrs: mustprogress uwtable
define void @_ZN4toku8locktree13release_locksEmPKNS_12range_bufferEb(ptr noundef nonnull align 8 dereferenceable(400) %0, i64 noundef %1, ptr noundef %2, i1 noundef zeroext %3) local_unnamed_addr #0 align 2 {
  %5 = alloca %"class.toku::concurrent_tree::locked_keyrange", align 8
  %6 = alloca %"class.toku::range_buffer::iterator", align 8
  %7 = alloca %"class.toku::range_buffer::iterator::record", align 8
  br i1 %3, label %8, label %10

8:                                                ; preds = %4
  %9 = tail call noundef zeroext i1 @_ZN4toku8locktree15sto_try_releaseEm(ptr noundef nonnull align 8 dereferenceable(400) %0, i64 poison)
  br i1 %9, label %52, label %.critedge

10:                                               ; preds = %4
  %11 = getelementptr inbounds nuw i8, ptr %0, i64 304
  %12 = load i64, ptr %11, align 8, !tbaa !38
  %.not = icmp eq i64 %12, 0
  br i1 %.not, label %.critedge, label %13

13:                                               ; preds = %10
  call void @llvm.lifetime.start.p0(i64 104, ptr nonnull %5) #21
  %14 = getelementptr inbounds nuw i8, ptr %0, i64 64
  %15 = load ptr, ptr %14, align 8, !tbaa !44
  call void @_ZN4toku15concurrent_tree15locked_keyrange7prepareEPS0_(ptr noundef nonnull align 8 dereferenceable(104) %5, ptr noundef %15)
  %16 = load i64, ptr %11, align 8, !tbaa !45
  %.not7 = icmp eq i64 %16, 0
  br i1 %.not7, label %41, label %17

17:                                               ; preds = %13
  %18 = getelementptr inbounds nuw i8, ptr %0, i64 384
  %19 = load i64, ptr %18, align 8, !tbaa !86
  %20 = add i64 %19, 1
  store i64 %20, ptr %18, align 8, !tbaa !86
  %21 = call { i32, i32 } asm sideeffect "rdtsc", "={ax},={dx},~{dirflag},~{fpsr},~{flags}"() #21, !srcloc !87
  call void @_ZN4toku8locktree33sto_migrate_buffer_ranges_to_treeEPv(ptr noundef nonnull align 8 dereferenceable(400) %0, ptr noundef nonnull %5)
  %22 = getelementptr inbounds nuw i8, ptr %0, i64 312
  %23 = call noundef i64 @_ZNK4toku12range_buffer17total_memory_sizeEv(ptr noundef nonnull align 8 dereferenceable(60) %22)
  %24 = load ptr, ptr %0, align 8, !tbaa !4
  %.not.i.i.i = icmp eq ptr %24, null
  br i1 %.not.i.i.i, label %_ZN4toku8locktree13sto_end_earlyEPv.exit, label %25

25:                                               ; preds = %17
  call void @_ZN4toku16locktree_manager17note_mem_releasedEm(ptr noundef nonnull align 8 dereferenceable(392) %24, i64 noundef %23)
  br label %_ZN4toku8locktree13sto_end_earlyEPv.exit

_ZN4toku8locktree13sto_end_earlyEPv.exit:         ; preds = %17, %25
  %26 = extractvalue { i32, i32 } %21, 1
  %.neg6.i = sub i32 0, %26
  %.neg6.z.i = zext i32 %.neg6.i to i64
  %.neg5.i = shl nuw i64 %.neg6.z.i, 32
  %27 = extractvalue { i32, i32 } %21, 0
  %28 = zext i32 %27 to i64
  call void @_ZN4toku12range_buffer7destroyEv(ptr noundef nonnull align 8 dereferenceable(60) %22)
  call void @_ZN4toku12range_buffer6createEv(ptr noundef nonnull align 8 dereferenceable(60) %22)
  store i64 0, ptr %11, align 8, !tbaa !45
  %29 = getelementptr inbounds nuw i8, ptr %0, i64 376
  store i32 0, ptr %29, align 8, !tbaa !53
  %30 = call { i32, i32 } asm sideeffect "rdtsc", "={ax},={dx},~{dirflag},~{fpsr},~{flags}"() #21, !srcloc !87
  %31 = extractvalue { i32, i32 } %30, 0
  %32 = extractvalue { i32, i32 } %30, 1
  %33 = zext i32 %32 to i64
  %34 = shl nuw i64 %33, 32
  %35 = zext i32 %31 to i64
  %.neg4.i = sub i64 %.neg5.i, %28
  %36 = getelementptr inbounds nuw i8, ptr %0, i64 392
  %37 = load i64, ptr %36, align 8, !tbaa !88
  %38 = add i64 %.neg4.i, %37
  %39 = add i64 %38, %35
  %40 = add i64 %39, %34
  store i64 %40, ptr %36, align 8, !tbaa !88
  br label %41

41:                                               ; preds = %_ZN4toku8locktree13sto_end_earlyEPv.exit, %13
  call void @_ZN4toku15concurrent_tree15locked_keyrange7releaseEv(ptr noundef nonnull align 8 dereferenceable(104) %5)
  call void @llvm.lifetime.end.p0(i64 104, ptr nonnull %5) #21
  br label %.critedge

.critedge:                                        ; preds = %41, %10, %8
  call void @llvm.lifetime.start.p0(i64 48, ptr nonnull %6) #21
  call void @_ZN4toku12range_buffer8iteratorC1EPKS0_(ptr noundef nonnull align 8 dereferenceable(48) %6, ptr noundef %2)
  call void @llvm.lifetime.start.p0(i64 80, ptr nonnull %7) #21
  %42 = call noundef zeroext i1 @_ZN4toku12range_buffer8iterator7currentEPNS1_6recordE(ptr noundef nonnull align 8 dereferenceable(48) %6, ptr noundef nonnull %7)
  br i1 %42, label %.lr.ph, label %._crit_edge

.lr.ph:                                           ; preds = %.critedge, %.lr.ph
  %43 = call noundef ptr @_ZNK4toku12range_buffer8iterator6record12get_left_keyEv(ptr noundef nonnull align 8 dereferenceable(80) %7)
  %44 = call noundef ptr @_ZNK4toku12range_buffer8iterator6record13get_right_keyEv(ptr noundef nonnull align 8 dereferenceable(80) %7)
  call void @_ZN4toku8locktree34remove_overlapping_locks_for_txnidEmPK10__toku_dbtS3_(ptr noundef nonnull align 8 dereferenceable(400) %0, i64 noundef %1, ptr noundef %43, ptr noundef %44)
  call void @_ZN4toku12range_buffer8iterator4nextEv(ptr noundef nonnull align 8 dereferenceable(48) %6)
  %45 = call noundef zeroext i1 @_ZN4toku12range_buffer8iterator7currentEPNS1_6recordE(ptr noundef nonnull align 8 dereferenceable(48) %6, ptr noundef nonnull %7)
  br i1 %45, label %.lr.ph, label %._crit_edge, !llvm.loop !143

._crit_edge:                                      ; preds = %.lr.ph, %.critedge
  %46 = getelementptr inbounds nuw i8, ptr %0, i64 376
  %47 = load i32, ptr %46, align 8, !tbaa !53
  %48 = icmp slt i32 %47, 100
  br i1 %48, label %49, label %51

49:                                               ; preds = %._crit_edge
  %50 = atomicrmw add ptr %46, i32 1 seq_cst, align 4
  br label %51

51:                                               ; preds = %49, %._crit_edge
  call void @llvm.lifetime.end.p0(i64 80, ptr nonnull %7) #21
  call void @llvm.lifetime.end.p0(i64 48, ptr nonnull %6) #21
  br label %52

52:                                               ; preds = %51, %8
  ret void
}